; Function Attrs: nounwind uwtable
define ptr @l_Lean_JsonRpc_instToStringRequestID(ptr noundef %0) local_unnamed_addr #0 {
  %2 = ptrtoint ptr %0 to i64
  %3 = and i64 %2, 1
  %.not.i24 = icmp eq i64 %3, 0
  br i1 %.not.i24, label %7, label %4

4:                                                ; preds = %1
  %5 = lshr i64 %2, 1
  %6 = trunc i64 %5 to i32
  br label %lean_obj_tag.exit

7:                                                ; preds = %1
  %8 = getelementptr i8, ptr %0, i64 4
  %.val.i = load i32, ptr %8, align 4
  %9 = lshr i32 %.val.i, 24
  br label %lean_obj_tag.exit

lean_obj_tag.exit:                                ; preds = %4, %7
  %.0.i = phi i32 [ %6, %4 ], [ %9, %7 ]
  switch i32 %.0.i, label %57 [
    i32 0, label %10
    i32 1, label %38
  ]

10:                                               ; preds = %lean_obj_tag.exit
  %11 = getelementptr inbounds nuw i8, ptr %0, i64 8
  %12 = load ptr, ptr %11, align 8, !tbaa !4
  %13 = ptrtoint ptr %12 to i64
  %14 = and i64 %13, 1
  %.not31 = icmp eq i64 %14, 0
  br i1 %.not31, label %15, label %lean_inc.exit19

15:                                               ; preds = %10
  %.val.i25 = load i32, ptr %12, align 4, !tbaa !10
  %16 = icmp sgt i32 %.val.i25, 0
  br i1 %16, label %17, label %19, !prof !13

17:                                               ; preds = %15
  %18 = add nuw i32 %.val.i25, 1
  store i32 %18, ptr %12, align 4, !tbaa !10
  br label %lean_inc.exit19

19:                                               ; preds = %15
  %.not.i26 = icmp eq i32 %.val.i25, 0
  br i1 %.not.i26, label %lean_inc.exit19, label %20

20:                                               ; preds = %19
  tail call void @lean_inc_ref_cold(ptr noundef nonnull %12) #7
  br label %lean_inc.exit19

lean_inc.exit19:                                  ; preds = %20, %19, %17, %10
  br i1 %.not.i24, label %21, label %lean_dec.exit18

21:                                               ; preds = %lean_inc.exit19
  %22 = load i32, ptr %0, align 4, !tbaa !10
  %23 = icmp sgt i32 %22, 1
  br i1 %23, label %24, label %26, !prof !13

24:                                               ; preds = %21
  %25 = add nsw i32 %22, -1
  store i32 %25, ptr %0, align 4, !tbaa !10
  br label %lean_dec.exit18

26:                                               ; preds = %21
  %.not.i = icmp eq i32 %22, 0
  br i1 %.not.i, label %lean_dec.exit18, label %27

27:                                               ; preds = %26
  tail call void @lean_dec_ref_cold(ptr noundef nonnull %0) #7
  br label %lean_dec.exit18

lean_dec.exit18:                                  ; preds = %27, %26, %24, %lean_inc.exit19
  %28 = load ptr, ptr @l_Lean_JsonRpc_instToStringRequestID___closed__1, align 8, !tbaa !4
  %29 = tail call ptr @lean_string_append(ptr noundef %28, ptr noundef %12) #7
  br i1 %.not31, label %30, label %lean_dec.exit17

30:                                               ; preds = %lean_dec.exit18
  %31 = load i32, ptr %12, align 4, !tbaa !10
  %32 = icmp sgt i32 %31, 1
  br i1 %32, label %33, label %35, !prof !13

33:                                               ; preds = %30
  %34 = add nsw i32 %31, -1
  store i32 %34, ptr %12, align 4, !tbaa !10
  br label %lean_dec.exit17

35:                                               ; preds = %30
  %.not.i20 = icmp eq i32 %31, 0
  br i1 %.not.i20, label %lean_dec.exit17, label %36

36:                                               ; preds = %35
  tail call void @lean_dec_ref_cold(ptr noundef nonnull %12) #7
  br label %lean_dec.exit17

lean_dec.exit17:                                  ; preds = %36, %35, %33, %lean_dec.exit18
  %37 = tail call ptr @lean_string_append(ptr noundef %29, ptr noundef %28) #7
  br label %59

38:                                               ; preds = %lean_obj_tag.exit
  %39 = getelementptr inbounds nuw i8, ptr %0, i64 8
  %40 = load ptr, ptr %39, align 8, !tbaa !4
  %41 = ptrtoint ptr %40 to i64
  %42 = and i64 %41, 1
  %.not = icmp eq i64 %42, 0
  br i1 %.not, label %43, label %lean_inc.exit

43:                                               ; preds = %38
  %.val.i27 = load i32, ptr %40, align 4, !tbaa !10
  %44 = icmp sgt i32 %.val.i27, 0
  br i1 %44, label %45, label %47, !prof !13

45:                                               ; preds = %43
  %46 = add nuw i32 %.val.i27, 1
  store i32 %46, ptr %40, align 4, !tbaa !10
  br label %lean_inc.exit

47:                                               ; preds = %43
  %.not.i28 = icmp eq i32 %.val.i27, 0
  br i1 %.not.i28, label %lean_inc.exit, label %48

48:                                               ; preds = %47
  tail call void @lean_inc_ref_cold(ptr noundef nonnull %40) #7
  br label %lean_inc.exit

lean_inc.exit:                                    ; preds = %48, %47, %45, %38
  br i1 %.not.i24, label %49, label %lean_dec.exit

49:                                               ; preds = %lean_inc.exit
  %50 = load i32, ptr %0, align 4, !tbaa !10
  %51 = icmp sgt i32 %50, 1
  br i1 %51, label %52, label %54, !prof !13

52:                                               ; preds = %49
  %53 = add nsw i32 %50, -1
  store i32 %53, ptr %0, align 4, !tbaa !10
  br label %lean_dec.exit

54:                                               ; preds = %49
  %.not.i22 = icmp eq i32 %50, 0
  br i1 %.not.i22, label %lean_dec.exit, label %55

55:                                               ; preds = %54
  tail call void @lean_dec_ref_cold(ptr noundef nonnull %0) #7
  br label %lean_dec.exit

lean_dec.exit:                                    ; preds = %55, %54, %52, %lean_inc.exit
  %56 = tail call ptr @l_Lean_JsonNumber_toString(ptr noundef %40) #7
  br label %59

57:                                               ; preds = %lean_obj_tag.exit
  %58 = load ptr, ptr @l_Lean_JsonRpc_instToStringRequestID___closed__2, align 8, !tbaa !4
  br label %59

59:                                               ; preds = %57, %lean_dec.exit, %lean_dec.exit17
  %.0 = phi ptr [ %58, %57 ], [ %56, %lean_dec.exit ], [ %37, %lean_dec.exit17 ]
  ret ptr %.0
}